"File: car2.c        Holtek Cross-Assembler  Version 3.00      Page 1



;  28: {
  28  0000              __stm0ah EQU [02dH]
  28  0000              __stm0al EQU [02cH]
  28  0000              __stm0dh EQU [02bH]
  28  0000              __stm0dl EQU [02aH]
  28  0000              __stm0c1 EQU [029H]
  28  0000              __stm0c0 EQU [028H]
  28  0000              __pasr EQU [026H]
  28  0000              __rstc EQU [025H]
  28  0000              __sadc2 EQU [024H]
  28  0000              __sadc1 EQU [023H]
  28  0000              __sadc0 EQU [022H]
  28  0000              __sadoh EQU [021H]
  28  0000              __sadol EQU [020H]
  28  0000              __eed EQU [01fH]
  28  0000              __eea EQU [01eH]
  28  0000              __smod1 EQU [01cH]
  28  0000              __tbc EQU [01bH]
  28  0000              __wdtc EQU [019H]
  28  0000              __ifs0 EQU [018H]
  28  0000              __pawu EQU [017H]
  28  0000              __papu EQU [016H]
  28  0000              __pac EQU [015H]
  28  0000              __pa EQU [014H]
  28  0000              __mfi0 EQU [011H]
  28  0000              __intc1 EQU [0fH]
  28  0000              __intc0 EQU [0eH]
  28  0000              __integ EQU [0dH]
  28  0000              __smod EQU [0bH]
  28  0000              __status EQU [0aH]
  28  0000              __tblh EQU [08H]
  28  0000              __tblp EQU [07H]
  28  0000              __pcl EQU [06H]
  28  0000              __acc EQU [05H]
  28  0000              __bp EQU [04H]
  28  0000              __mp1 EQU [03H]
  28  0000              __iar1 EQU [02H]
  28  0000              __mp0 EQU [01H]
  28  0000              __iar0 EQU [00H]
  28  0000              @@INT_ISR .SECTION AT 04H 'CODE'
  28  0000  2800     R  JMP _INT_ISR
  28  0000              @INT_ISR .SECTION 'CODE'
  28  0000              _INT_ISR PROC
  28  0000  0080     E  MOV V1A,A
  28  0001  070A        MOV A,[0AH]
  28  0002  0080     E  MOV V1S,A
  28  0003  0703        MOV A,[03H]
  28  0004  0080     E  MOV V1MP1,A
  28  0005  0704        MOV A,[04H]
  28  0006  0080     E  MOV V1BP,A

;  29: 	cnt=0;
  29  0007  0F00     R  MOV A,BANK _cnt
  29  0008  0084        MOV [04H],A
  29  0009  0F00     R  MOV A,OFFSET _cnt
  29  000A  0083        MOV [03H],A
  29  000B  1F02        CLR [02H]
"File: car2.c        Holtek Cross-Assembler  Version 3.00      Page 2 

  29  000C  1483        INC [03H]
  29  000D  1F02        CLR [02H]

;  30: 	if(!sig){
  30  000E  3D14        SZ [014H].2
  30  000F  2800     R  JMP L6

;  31: 		STM_DISABLE();
  31  0010  35A8        CLR [028H].3

;  32: 		STM_ENABLE();
  32  0011  31A8        SET [028H].3

;  33: 		STM_RUN();
  33  0012  37A8        CLR [028H].7

;  34: 		}else{
  34  0013  2800     R  JMP L7
  34  0014              L6:

;  36: 			STM_PAUSE();
  36  0014  33A8        SET [028H].7

;  37: 			t1=STM_GET_COUNTER_VALUE();
  37  0015  072B        MOV A,__stm0dh
  37  0016  0080     R  MOV b0_1[1],A
  37  0017  1F00     R  CLR b0_1
  37  0018  072A        MOV A,__stm0dl
  37  0019  0080     R  MOV b1_1,A
  37  001A  1F00     R  CLR b1_1[1]
  37  001B  0700     R  MOV A,b0_1
  37  001C  0500     R  OR A,b1_1
  37  001D  0080     R  MOV b0_1,A
  37  001E  0700     R  MOV A,b0_1[1]
  37  001F  0500     R  OR A,b1_1[1]
  37  0020  0080     R  MOV b0_1[1],A
  37  0021  0F00     R  MOV A,BANK _t1
  37  0022  0084        MOV [04H],A
  37  0023  0F00     R  MOV A,OFFSET _t1
  37  0024  0083        MOV [03H],A
  37  0025  0700     R  MOV A,b0_1
  37  0026  0082        MOV [02H],A
  37  0027  0700     R  MOV A,b0_1[1]
  37  0028  1483        INC [03H]
  37  0029  0082        MOV [02H],A

;  38: 			STM_DISABLE();
  38  002A  35A8        CLR [028H].3

;  39: 			STM_ENABLE();
  39  002B  31A8        SET [028H].3

;  40: 			if(t1>768){
  40  002C  0F00     R  MOV A,BANK _t1
  40  002D  0084        MOV [04H],A
  40  002E  0F00     R  MOV A,OFFSET _t1
  40  002F  0083        MOV [03H],A
  40  0030  0702        MOV A,[02H]
  40  0031  0080     R  MOV b0_1,A
  40  0032  1483        INC [03H]
"File: car2.c        Holtek Cross-Assembler  Version 3.00      Page 3 

  40  0033  0702        MOV A,[02H]
  40  0034  0080     R  MOV b0_1[1],A
  40  0035  0F80        MOV A,80h
  40  0036  0400     R  XOR A,b0_1[1]
  40  0037  0A83        SUB A,083h
  40  0038  380A        SNZ [0AH].0
  40  0039  2800     R  JMP L8
  40  003A  390A        SNZ [0AH].2
  40  003B  2800     R  JMP L38
  40  003C  0F00        MOV A,00h
  40  003D  0200     R  SUB A,b0_1
  40  003E  3C0A        SZ [0AH].0
  40  003F  2800     R  JMP L8
  40  0040              L38:

;  41: 				p++;
  41  0040  0F00     R  MOV A,BANK _p
  41  0041  0084        MOV [04H],A
  41  0042  0F00     R  MOV A,OFFSET _p
  41  0043  0083        MOV [03H],A
  41  0044  0F01        MOV A,01h
  41  0045  0382        ADDM A,[02H]
  41  0046  0F00        MOV A,00h
  41  0047  1483        INC [03H]
  41  0048  1382        ADCM A,[02H]

;  42: 				bit_in=1;
  42  0049  0F00     R  MOV A,BANK _bit_in
  42  004A  0084        MOV [04H],A
  42  004B  0F00     R  MOV A,OFFSET _bit_in
  42  004C  0083        MOV [03H],A
  42  004D  0F01        MOV A,1
  42  004E  0082        MOV [02H],A

;  43: 				}else if(t1>512){
  43  004F  2800     R  JMP L9
  43  0050              L8:
  43  0050  0F00     R  MOV A,BANK _t1
  43  0051  0084        MOV [04H],A
  43  0052  0F00     R  MOV A,OFFSET _t1
  43  0053  0083        MOV [03H],A
  43  0054  0702        MOV A,[02H]
  43  0055  0080     R  MOV b0_1,A
  43  0056  1483        INC [03H]
  43  0057  0702        MOV A,[02H]
  43  0058  0080     R  MOV b0_1[1],A
  43  0059  0F80        MOV A,80h
  43  005A  0400     R  XOR A,b0_1[1]
  43  005B  0A82        SUB A,082h
  43  005C  380A        SNZ [0AH].0
  43  005D  2800     R  JMP L10
  43  005E  390A        SNZ [0AH].2
  43  005F  2800     R  JMP L39
  43  0060  0F00        MOV A,00h
  43  0061  0200     R  SUB A,b0_1
  43  0062  3C0A        SZ [0AH].0
  43  0063  2800     R  JMP L10
  43  0064              L39:

;  44: 					p++;
"File: car2.c        Holtek Cross-Assembler  Version 3.00      Page 4 

  44  0064  0F00     R  MOV A,BANK _p
  44  0065  0084        MOV [04H],A
  44  0066  0F00     R  MOV A,OFFSET _p
  44  0067  0083        MOV [03H],A
  44  0068  0F01        MOV A,01h
  44  0069  0382        ADDM A,[02H]
  44  006A  0F00        MOV A,00h
  44  006B  1483        INC [03H]
  44  006C  1382        ADCM A,[02H]

;  45: 					bit_in=0;
  45  006D  0F00     R  MOV A,BANK _bit_in
  45  006E  0084        MOV [04H],A
  45  006F  0F00     R  MOV A,OFFSET _bit_in
  45  0070  0083        MOV [03H],A
  45  0071  1F02        CLR [02H]

;  46: 					}else if(t1>150){p=0;}
  46  0072  2800     R  JMP L11
  46  0073              L10:
  46  0073  0F00     R  MOV A,BANK _t1
  46  0074  0084        MOV [04H],A
  46  0075  0F00     R  MOV A,OFFSET _t1
  46  0076  0083        MOV [03H],A
  46  0077  0702        MOV A,[02H]
  46  0078  0080     R  MOV b0_1,A
  46  0079  1483        INC [03H]
  46  007A  0702        MOV A,[02H]
  46  007B  0080     R  MOV b0_1[1],A
  46  007C  0F80        MOV A,80h
  46  007D  0400     R  XOR A,b0_1[1]
  46  007E  0A80        SUB A,080h
  46  007F  380A        SNZ [0AH].0
  46  0080  2800     R  JMP L12
  46  0081  390A        SNZ [0AH].2
  46  0082  2800     R  JMP L40
  46  0083  0F96        MOV A,096h
  46  0084  0200     R  SUB A,b0_1
  46  0085  3C0A        SZ [0AH].0
  46  0086  2800     R  JMP L12
  46  0087              L40:
  46  0087  0F00     R  MOV A,BANK _p
  46  0088  0084        MOV [04H],A
  46  0089  0F00     R  MOV A,OFFSET _p
  46  008A  0083        MOV [03H],A
  46  008B  1F02        CLR [02H]
  46  008C  1483        INC [03H]
  46  008D  1F02        CLR [02H]
  46  008E              L12:
  46  008E              L11:
  46  008E              L9:

;  47: 			if(p==1){
  47  008E  0F00     R  MOV A,BANK _p
  47  008F  0084        MOV [04H],A
  47  0090  0F00     R  MOV A,OFFSET _p
  47  0091  0083        MOV [03H],A
  47  0092  0702        MOV A,[02H]
  47  0093  0080     R  MOV b0_1,A
  47  0094  1483        INC [03H]
"File: car2.c        Holtek Cross-Assembler  Version 3.00      Page 5 

  47  0095  0702        MOV A,[02H]
  47  0096  0080     R  MOV b0_1[1],A
  47  0097  0700     R  MOV A,b0_1
  47  0098  0C01        XOR A,01h
  47  0099  390A        SNZ [0AH].2
  47  009A  2800     R  JMP L14
  47  009B  0700     R  MOV A,b0_1[1]
  47  009C  0C00        XOR A,00h
  47  009D  390A        SNZ [0AH].2
  47  009E  2800     R  JMP L14

;  49: 				fr=bit_in;
  49  009F  0F00     R  MOV A,BANK _bit_in
  49  00A0  0084        MOV [04H],A
  49  00A1  0F00     R  MOV A,OFFSET _bit_in
  49  00A2  0083        MOV [03H],A
  49  00A3  0702        MOV A,[02H]
  49  00A4  0080     R  MOV b0_1,A
  49  00A5  0F00     R  MOV A,BANK _fr
  49  00A6  0084        MOV [04H],A
  49  00A7  0F00     R  MOV A,OFFSET _fr
  49  00A8  0083        MOV [03H],A
  49  00A9  0700     R  MOV A,b0_1
  49  00AA  0082        MOV [02H],A
  49  00AB              L14:

;  51: 			if(p==2){
  51  00AB  0F00     R  MOV A,BANK _p
  51  00AC  0084        MOV [04H],A
  51  00AD  0F00     R  MOV A,OFFSET _p
  51  00AE  0083        MOV [03H],A
  51  00AF  0702        MOV A,[02H]
  51  00B0  0080     R  MOV b0_1,A
  51  00B1  1483        INC [03H]
  51  00B2  0702        MOV A,[02H]
  51  00B3  0080     R  MOV b0_1[1],A
  51  00B4  0700     R  MOV A,b0_1
  51  00B5  0C02        XOR A,02h
  51  00B6  390A        SNZ [0AH].2
  51  00B7  2800     R  JMP L16
  51  00B8  0700     R  MOV A,b0_1[1]
  51  00B9  0C00        XOR A,00h
  51  00BA  390A        SNZ [0AH].2
  51  00BB  2800     R  JMP L16

;  53: 				fl=bit_in;
  53  00BC  0F00     R  MOV A,BANK _bit_in
  53  00BD  0084        MOV [04H],A
  53  00BE  0F00     R  MOV A,OFFSET _bit_in
  53  00BF  0083        MOV [03H],A
  53  00C0  0702        MOV A,[02H]
  53  00C1  0080     R  MOV b0_1,A
  53  00C2  0F00     R  MOV A,BANK _fl
  53  00C3  0084        MOV [04H],A
  53  00C4  0F00     R  MOV A,OFFSET _fl
  53  00C5  0083        MOV [03H],A
  53  00C6  0700     R  MOV A,b0_1
  53  00C7  0082        MOV [02H],A
  53  00C8              L16:

;  55: 			if(p==3){
"File: car2.c        Holtek Cross-Assembler  Version 3.00      Page 6 

  55  00C8  0F00     R  MOV A,BANK _p
  55  00C9  0084        MOV [04H],A
  55  00CA  0F00     R  MOV A,OFFSET _p
  55  00CB  0083        MOV [03H],A
  55  00CC  0702        MOV A,[02H]
  55  00CD  0080     R  MOV b0_1,A
  55  00CE  1483        INC [03H]
  55  00CF  0702        MOV A,[02H]
  55  00D0  0080     R  MOV b0_1[1],A
  55  00D1  0700     R  MOV A,b0_1
  55  00D2  0C03        XOR A,03h
  55  00D3  390A        SNZ [0AH].2
  55  00D4  2800     R  JMP L18
  55  00D5  0700     R  MOV A,b0_1[1]
  55  00D6  0C00        XOR A,00h
  55  00D7  390A        SNZ [0AH].2
  55  00D8  2800     R  JMP L18

;  57: 				br=bit_in;
  57  00D9  0F00     R  MOV A,BANK _bit_in
  57  00DA  0084        MOV [04H],A
  57  00DB  0F00     R  MOV A,OFFSET _bit_in
  57  00DC  0083        MOV [03H],A
  57  00DD  0702        MOV A,[02H]
  57  00DE  0080     R  MOV b0_1,A
  57  00DF  0F00     R  MOV A,BANK _br
  57  00E0  0084        MOV [04H],A
  57  00E1  0F00     R  MOV A,OFFSET _br
  57  00E2  0083        MOV [03H],A
  57  00E3  0700     R  MOV A,b0_1
  57  00E4  0082        MOV [02H],A
  57  00E5              L18:

;  59: 			if(p==4){
  59  00E5  0F00     R  MOV A,BANK _p
  59  00E6  0084        MOV [04H],A
  59  00E7  0F00     R  MOV A,OFFSET _p
  59  00E8  0083        MOV [03H],A
  59  00E9  0702        MOV A,[02H]
  59  00EA  0080     R  MOV b0_1,A
  59  00EB  1483        INC [03H]
  59  00EC  0702        MOV A,[02H]
  59  00ED  0080     R  MOV b0_1[1],A
  59  00EE  0700     R  MOV A,b0_1
  59  00EF  0C04        XOR A,04h
  59  00F0  390A        SNZ [0AH].2
  59  00F1  2800     R  JMP L20
  59  00F2  0700     R  MOV A,b0_1[1]
  59  00F3  0C00        XOR A,00h
  59  00F4  390A        SNZ [0AH].2
  59  00F5  2800     R  JMP L20

;  61: 				bl=bit_in;
  61  00F6  0F00     R  MOV A,BANK _bit_in
  61  00F7  0084        MOV [04H],A
  61  00F8  0F00     R  MOV A,OFFSET _bit_in
  61  00F9  0083        MOV [03H],A
  61  00FA  0702        MOV A,[02H]
  61  00FB  0080     R  MOV b0_1,A
  61  00FC  0F00     R  MOV A,BANK _bl
"File: car2.c        Holtek Cross-Assembler  Version 3.00      Page 7 

  61  00FD  0084        MOV [04H],A
  61  00FE  0F00     R  MOV A,OFFSET _bl
  61  00FF  0083        MOV [03H],A
  61  0100  0700     R  MOV A,b0_1
  61  0101  0082        MOV [02H],A
  61  0102              L20:

;  63: 			if(p==5){
  63  0102  0F00     R  MOV A,BANK _p
  63  0103  0084        MOV [04H],A
  63  0104  0F00     R  MOV A,OFFSET _p
  63  0105  0083        MOV [03H],A
  63  0106  0702        MOV A,[02H]
  63  0107  0080     R  MOV b0_1,A
  63  0108  1483        INC [03H]
  63  0109  0702        MOV A,[02H]
  63  010A  0080     R  MOV b0_1[1],A
  63  010B  0700     R  MOV A,b0_1
  63  010C  0C05        XOR A,05h
  63  010D  390A        SNZ [0AH].2
  63  010E  2800     R  JMP L22
  63  010F  0700     R  MOV A,b0_1[1]
  63  0110  0C00        XOR A,00h
  63  0111  390A        SNZ [0AH].2
  63  0112  2800     R  JMP L22

;  65: 				h=bit_in;
  65  0113  0F00     R  MOV A,BANK _bit_in
  65  0114  0084        MOV [04H],A
  65  0115  0F00     R  MOV A,OFFSET _bit_in
  65  0116  0083        MOV [03H],A
  65  0117  0702        MOV A,[02H]
  65  0118  0080     R  MOV b0_1,A
  65  0119  0F00     R  MOV A,BANK _h
  65  011A  0084        MOV [04H],A
  65  011B  0F00     R  MOV A,OFFSET _h
  65  011C  0083        MOV [03H],A
  65  011D  0700     R  MOV A,b0_1
  65  011E  0082        MOV [02H],A
  65  011F              L22:

;  67: 			if(p==5){
  67  011F  0F00     R  MOV A,BANK _p
  67  0120  0084        MOV [04H],A
  67  0121  0F00     R  MOV A,OFFSET _p
  67  0122  0083        MOV [03H],A
  67  0123  0702        MOV A,[02H]
  67  0124  0080     R  MOV b0_1,A
  67  0125  1483        INC [03H]
  67  0126  0702        MOV A,[02H]
  67  0127  0080     R  MOV b0_1[1],A
  67  0128  0700     R  MOV A,b0_1
  67  0129  0C05        XOR A,05h
  67  012A  390A        SNZ [0AH].2
  67  012B  2800     R  JMP L24
  67  012C  0700     R  MOV A,b0_1[1]
  67  012D  0C00        XOR A,00h
  67  012E  390A        SNZ [0AH].2
  67  012F  2800     R  JMP L24

;  68: 					if(fr){turn_rightr();}else if(br){turn_leftr();}else{stopr();}
"File: car2.c        Holtek Cross-Assembler  Version 3.00      Page 8 

  68  0130  0F00     R  MOV A,BANK _fr
  68  0131  0084        MOV [04H],A
  68  0132  0F00     R  MOV A,OFFSET _fr
  68  0133  0083        MOV [03H],A
  68  0134  1082        SZ [02H]
  68  0135  2800     R  JMP L41
  68  0136  2800     R  JMP L26
  68  0137              L41:
  68  0137  2000     R  CALL _turn_rightr
  68  0138  2800     R  JMP L27
  68  0139              L26:
  68  0139  0F00     R  MOV A,BANK _br
  68  013A  0084        MOV [04H],A
  68  013B  0F00     R  MOV A,OFFSET _br
  68  013C  0083        MOV [03H],A
  68  013D  1082        SZ [02H]
  68  013E  2800     R  JMP L42
  68  013F  2800     R  JMP L28
  68  0140              L42:
  68  0140  2000     R  CALL _turn_leftr
  68  0141  2800     R  JMP L29
  68  0142              L28:
  68  0142  2000     R  CALL _stopr
  68  0143              L29:
  68  0143              L27:

;  69: 					if(fl){turn_rightl();}else if(bl){turn_leftl();}else{stopl();}
  69  0143  0F00     R  MOV A,BANK _fl
  69  0144  0084        MOV [04H],A
  69  0145  0F00     R  MOV A,OFFSET _fl
  69  0146  0083        MOV [03H],A
  69  0147  1082        SZ [02H]
  69  0148  2800     R  JMP L43
  69  0149  2800     R  JMP L30
  69  014A              L43:
  69  014A  2000     R  CALL _turn_rightl
  69  014B  2800     R  JMP L31
  69  014C              L30:
  69  014C  0F00     R  MOV A,BANK _bl
  69  014D  0084        MOV [04H],A
  69  014E  0F00     R  MOV A,OFFSET _bl
  69  014F  0083        MOV [03H],A
  69  0150  1082        SZ [02H]
  69  0151  2800     R  JMP L44
  69  0152  2800     R  JMP L32
  69  0153              L44:
  69  0153  2000     R  CALL _turn_leftl
  69  0154  2800     R  JMP L33
  69  0155              L32:
  69  0155  2000     R  CALL _stopl
  69  0156              L33:
  69  0156              L31:

;  70: 					if(h){buzz=1;}else{buzz=0;}
  70  0156  0F00     R  MOV A,BANK _h
  70  0157  0084        MOV [04H],A
  70  0158  0F00     R  MOV A,OFFSET _h
  70  0159  0083        MOV [03H],A
  70  015A  1082        SZ [02H]
  70  015B  2800     R  JMP L45
"File: car2.c        Holtek Cross-Assembler  Version 3.00      Page 9 

  70  015C  2800     R  JMP L34
  70  015D              L45:
  70  015D  0F00     R  MOV A,BANK _buzz
  70  015E  0084        MOV [04H],A
  70  015F  0F00     R  MOV A,OFFSET _buzz
  70  0160  0083        MOV [03H],A
  70  0161  0F01        MOV A,01h
  70  0162  0082        MOV [02H],A
  70  0163  1483        INC [03H]
  70  0164  1F02        CLR [02H]
  70  0165  2800     R  JMP L35
  70  0166              L34:
  70  0166  0F00     R  MOV A,BANK _buzz
  70  0167  0084        MOV [04H],A
  70  0168  0F00     R  MOV A,OFFSET _buzz
  70  0169  0083        MOV [03H],A
  70  016A  1F02        CLR [02H]
  70  016B  1483        INC [03H]
  70  016C  1F02        CLR [02H]
  70  016D              L35:

;  71: 					if(fr && br && fl && bl){dance=1;}else{dance=0;}
  71  016D  0F00     R  MOV A,BANK _fr
  71  016E  0084        MOV [04H],A
  71  016F  0F00     R  MOV A,OFFSET _fr
  71  0170  0083        MOV [03H],A
  71  0171  1082        SZ [02H]
  71  0172  2800     R  JMP L46
  71  0173  2800     R  JMP L36
  71  0174              L46:
  71  0174  0F00     R  MOV A,BANK _br
  71  0175  0084        MOV [04H],A
  71  0176  0F00     R  MOV A,OFFSET _br
  71  0177  0083        MOV [03H],A
  71  0178  1082        SZ [02H]
  71  0179  2800     R  JMP L47
  71  017A  2800     R  JMP L36
  71  017B              L47:
  71  017B  0F00     R  MOV A,BANK _fl
  71  017C  0084        MOV [04H],A
  71  017D  0F00     R  MOV A,OFFSET _fl
  71  017E  0083        MOV [03H],A
  71  017F  1082        SZ [02H]
  71  0180  2800     R  JMP L48
  71  0181  2800     R  JMP L36
  71  0182              L48:
  71  0182  0F00     R  MOV A,BANK _bl
  71  0183  0084        MOV [04H],A
  71  0184  0F00     R  MOV A,OFFSET _bl
  71  0185  0083        MOV [03H],A
  71  0186  1082        SZ [02H]
  71  0187  2800     R  JMP L49
  71  0188  2800     R  JMP L36
  71  0189              L49:
  71  0189  0F00     R  MOV A,BANK _dance
  71  018A  0084        MOV [04H],A
  71  018B  0F00     R  MOV A,OFFSET _dance
  71  018C  0083        MOV [03H],A
  71  018D  0F01        MOV A,1
  71  018E  0082        MOV [02H],A
"File: car2.c        Holtek Cross-Assembler  Version 3.00      Page 10 

  71  018F  2800     R  JMP L37
  71  0190              L36:
  71  0190  0F00     R  MOV A,BANK _dance
  71  0191  0084        MOV [04H],A
  71  0192  0F00     R  MOV A,OFFSET _dance
  71  0193  0083        MOV [03H],A
  71  0194  1F02        CLR [02H]
  71  0195              L37:

;  72: 					p=0;
  72  0195  0F00     R  MOV A,BANK _p
  72  0196  0084        MOV [04H],A
  72  0197  0F00     R  MOV A,OFFSET _p
  72  0198  0083        MOV [03H],A
  72  0199  1F02        CLR [02H]
  72  019A  1483        INC [03H]
  72  019B  1F02        CLR [02H]
  72  019C              L24:
  72  019C              L7:
  72  019C              L5:
  72  019C  0700     E  MOV A,V1MP1
  72  019D  0083        MOV [03H],A
  72  019E  0700     E  MOV A,V1BP
  72  019F  0084        MOV [04H],A
  72  01A0  0700     E  MOV A,V1S
  72  01A1  008A        MOV [0AH],A
  72  01A2  0700     E  MOV A,V1A
  72  01A3  0004        RETI
  72  01A4              _INT_ISR ENDP
  72  01A4              RAMBANK 0 @INT_ISR
  72  0000              @INT_ISR .SECTION 'DATA'
  72  0000  0002[       b0_1 DB 2 DUP(?)
            00
            ]
  72  0002  0002[       b1_1 DB 2 DUP(?)
            00
            ]

;  98: {
  98  0000              @@TB0_ISR .SECTION AT 08H 'CODE'
  98  0000  2800     R  JMP _TB0_ISR
  98  0000              @TB0_ISR .SECTION 'CODE'
  98  0000              _TB0_ISR PROC
  98  0000  0080     E  MOV V2A,A
  98  0001  070A        MOV A,[0AH]
  98  0002  0080     E  MOV V2S,A
  98  0003  0703        MOV A,[03H]
  98  0004  0080     E  MOV V2MP1,A
  98  0005  0704        MOV A,[04H]
  98  0006  0080     E  MOV V2BP,A

; 100: 	if(buzz){
 100  0007  0F00     R  MOV A,BANK _buzz
 100  0008  0084        MOV [04H],A
 100  0009  0F00     R  MOV A,OFFSET _buzz
 100  000A  0083        MOV [03H],A
 100  000B  0702        MOV A,[02H]
 100  000C  0080     R  MOV b0_2,A
 100  000D  1483        INC [03H]
 100  000E  0702        MOV A,[02H]
"File: car2.c        Holtek Cross-Assembler  Version 3.00      Page 11 

 100  000F  0080     R  MOV b0_2[1],A
 100  0010  0700     R  MOV A,b0_2
 100  0011  0500     R  OR A,b0_2[1]
 100  0012  3D0A        SZ [0AH].2
 100  0013  2800     R  JMP L51

; 101: 		time++;
 101  0014  0F00     R  MOV A,BANK _time
 101  0015  0084        MOV [04H],A
 101  0016  0F00     R  MOV A,OFFSET _time
 101  0017  0083        MOV [03H],A
 101  0018  0F01        MOV A,01h
 101  0019  0382        ADDM A,[02H]
 101  001A  0F00        MOV A,00h
 101  001B  1483        INC [03H]
 101  001C  1382        ADCM A,[02H]

; 102: 		if (time>1000){C3=~C3;time=0;}
 102  001D  0F00     R  MOV A,BANK _time
 102  001E  0084        MOV [04H],A
 102  001F  0F00     R  MOV A,OFFSET _time
 102  0020  0083        MOV [03H],A
 102  0021  0702        MOV A,[02H]
 102  0022  0080     R  MOV b0_2,A
 102  0023  1483        INC [03H]
 102  0024  0702        MOV A,[02H]
 102  0025  0080     R  MOV b0_2[1],A
 102  0026  0F80        MOV A,80h
 102  0027  0400     R  XOR A,b0_2[1]
 102  0028  0A83        SUB A,083h
 102  0029  380A        SNZ [0AH].0
 102  002A  2800     R  JMP L52
 102  002B  390A        SNZ [0AH].2
 102  002C  2800     R  JMP L55
 102  002D  0FE8        MOV A,0e8h
 102  002E  0200     R  SUB A,b0_2
 102  002F  3C0A        SZ [0AH].0
 102  0030  2800     R  JMP L52
 102  0031              L55:
 102  0031  0F80        MOV A,1<<7
 102  0032  0494        XORM A,[014H]
 102  0033  0F00     R  MOV A,BANK _time
 102  0034  0084        MOV [04H],A
 102  0035  0F00     R  MOV A,OFFSET _time
 102  0036  0083        MOV [03H],A
 102  0037  1F02        CLR [02H]
 102  0038  1483        INC [03H]
 102  0039  1F02        CLR [02H]

; 103: 		}else{
 103  003A  2800     R  JMP L52
 103  003B              L51:

; 104: 			time=0;}
 104  003B  0F00     R  MOV A,BANK _time
 104  003C  0084        MOV [04H],A
 104  003D  0F00     R  MOV A,OFFSET _time
 104  003E  0083        MOV [03H],A
 104  003F  1F02        CLR [02H]
 104  0040  1483        INC [03H]
"File: car2.c        Holtek Cross-Assembler  Version 3.00      Page 12 

 104  0041  1F02        CLR [02H]
 104  0042              L52:

; 118: 	TB1_CLEAR_FLAG();
 118  0042  370E        CLR [0EH].6
 118  0043              L50:
 118  0043  0700     E  MOV A,V2MP1
 118  0044  0083        MOV [03H],A
 118  0045  0700     E  MOV A,V2BP
 118  0046  0084        MOV [04H],A
 118  0047  0700     E  MOV A,V2S
 118  0048  008A        MOV [0AH],A
 118  0049  0700     E  MOV A,V2A
 118  004A  0004        RETI
 118  004B              _TB0_ISR ENDP
 118  004B              RAMBANK 0 @TB0_ISR
 118  0000              @TB0_ISR .SECTION 'DATA'
 118  0000  0002[       b0_2 DB 2 DUP(?)
            00
            ]

; 125: {
 125  0000              @@TB1_ISR .SECTION AT 0cH 'CODE'
 125  0000  2800     R  JMP _TB1_ISR
 125  0000              @TB1_ISR .SECTION 'CODE'
 125  0000              _TB1_ISR PROC
 125  0000  0080     E  MOV V3A,A
 125  0001  070A        MOV A,[0AH]
 125  0002  0080     E  MOV V3S,A

; 126: 	STM_PAUSE();
 126  0003  33A8        SET [028H].7

; 127: 	STM_DISABLE();
 127  0004  35A8        CLR [028H].3

; 128: 	STM_ENABLE();
 128  0005  31A8        SET [028H].3

; 129: 	TB0_CLEAR_FLAG();
 129  0006  368E        CLR [0EH].5
 129  0007              L56:
 129  0007  0700     E  MOV A,V3S
 129  0008  008A        MOV [0AH],A
 129  0009  0700     E  MOV A,V3A
 129  000A  0004        RETI
 129  000B              _TB1_ISR ENDP
 129  000B              RAMBANK 0 @TB1_ISR
 129  0000              @TB1_ISR .SECTION 'DATA'

; 136: {
 136  0000              @MAIN .SECTION 'CODE'
 136  0000              _main PROC
 136  0000              begin:

; 137: 	C1=0;
 137  0000  3414        CLR [014H].0

; 138: 	C2=0;
 138  0001  3494        CLR [014H].1
"File: car2.c        Holtek Cross-Assembler  Version 3.00      Page 13 


; 139: 	C3=0;
 139  0002  3794        CLR [014H].7

; 140: 	C4=0;
 140  0003  3714        CLR [014H].6

; 141: 	C5=0;
 141  0004  3694        CLR [014H].5

; 142: 	_pac0=0;
 142  0005  3415        CLR [015H].0

; 143: 	_pac1=0;
 143  0006  3495        CLR [015H].1

; 144: 	_pac7=0;
 144  0007  3795        CLR [015H].7

; 145: 	_pac6=0;
 145  0008  3715        CLR [015H].6

; 146: 	_pac5=0;
 146  0009  3695        CLR [015H].5

; 147: 	_pac2=1;
 147  000A  3115        SET [015H].2

; 149: 	_papu0=1;
 149  000B  3016        SET [016H].0

; 150: 	_papu1=1;
 150  000C  3096        SET [016H].1

; 151: 	_papu2=1;
 151  000D  3116        SET [016H].2

; 152: 	_papu5=1;
 152  000E  3296        SET [016H].5

; 153: 	_papu6=1;
 153  000F  3316        SET [016H].6

; 154: 	_papu7=1;
 154  0010  3396        SET [016H].7

; 155: 	_pawu2=1;
 155  0011  3117        SET [017H].2

; 156: 	SysClockDivision_Init();
 156  0012  2000     E  CALL _SysClockDivision_Init

; 158: 	WDT_DISABLE();
 158  0013  0FA8        MOV A,0a8h
 158  0014  0099        MOV __wdtc,A

; 159: 	STM_Init();
 159  0015  2000     E  CALL _STM_Init

; 160: 	STM_ENABLE();
"File: car2.c        Holtek Cross-Assembler  Version 3.00      Page 14 

 160  0016  31A8        SET [028H].3

; 161: 	STM_RUN();
 161  0017  37A8        CLR [028H].7

; 165: 	TB_ENABLE();
 165  0018  339B        SET [01BH].7

; 166: 	TB0_ISR_ENABLE();
 166  0019  310E        SET [0EH].2

; 167: 	TB0_CLEAR_FLAG();
 167  001A  368E        CLR [0EH].5

; 168: 	TB1_ISR_ENABLE();
 168  001B  318E        SET [0EH].3

; 169: 	TB1_CLEAR_FLAG();
 169  001C  370E        CLR [0EH].6

; 170: 	TimeBase_Init();
 170  001D  2000     E  CALL _TimeBase_Init

; 175: 	EXIT_Init();
 175  001E  2000     E  CALL _EXIT_Init

; 176: 	INT_ISR_ENABLE();
 176  001F  308E        SET [0EH].1

; 177: 	EMI_ENABLE();
 177  0020  300E        SET [0EH].0

; 178: 	t0=0;
 178  0021  0F00     R  MOV A,BANK _t0
 178  0022  0084        MOV [04H],A
 178  0023  0F00     R  MOV A,OFFSET _t0
 178  0024  0083        MOV [03H],A
 178  0025  1F02        CLR [02H]
 178  0026  1483        INC [03H]
 178  0027  1F02        CLR [02H]

; 179: 	buzz=0;
 179  0028  0F00     R  MOV A,BANK _buzz
 179  0029  0084        MOV [04H],A
 179  002A  0F00     R  MOV A,OFFSET _buzz
 179  002B  0083        MOV [03H],A
 179  002C  1F02        CLR [02H]
 179  002D  1483        INC [03H]
 179  002E  1F02        CLR [02H]

; 188: 	stopr();
 188  002F  2000     R  CALL _stopr

; 189: 	stopl();
 189  0030  2000     R  CALL _stopl

; 190: 	ddance=0;
 190  0031  0F00     R  MOV A,BANK _ddance
 190  0032  0084        MOV [04H],A
 190  0033  0F00     R  MOV A,OFFSET _ddance
"File: car2.c        Holtek Cross-Assembler  Version 3.00      Page 15 

 190  0034  0083        MOV [03H],A
 190  0035  1F02        CLR [02H]
 190  0036  2800     R  JMP L59
 190  0037              L58:

; 192: 		cnt++;
 192  0037  0F00     R  MOV A,BANK _cnt
 192  0038  0084        MOV [04H],A
 192  0039  0F00     R  MOV A,OFFSET _cnt
 192  003A  0083        MOV [03H],A
 192  003B  0F01        MOV A,01h
 192  003C  0382        ADDM A,[02H]
 192  003D  0F00        MOV A,00h
 192  003E  1483        INC [03H]
 192  003F  1382        ADCM A,[02H]

; 193: 		if(cnt>20000)
 193  0040  0F00     R  MOV A,BANK _cnt
 193  0041  0084        MOV [04H],A
 193  0042  0F00     R  MOV A,OFFSET _cnt
 193  0043  0083        MOV [03H],A
 193  0044  0702        MOV A,[02H]
 193  0045  0080     R  MOV b0_4,A
 193  0046  1483        INC [03H]
 193  0047  0702        MOV A,[02H]
 193  0048  0080     R  MOV b0_4[1],A
 193  0049  0F80        MOV A,80h
 193  004A  0400     R  XOR A,b0_4[1]
 193  004B  0ACE        SUB A,0ceh
 193  004C  380A        SNZ [0AH].0
 193  004D  2800     R  JMP L61
 193  004E  390A        SNZ [0AH].2
 193  004F  2800     R  JMP L63
 193  0050  0F20        MOV A,020h
 193  0051  0200     R  SUB A,b0_4
 193  0052  3C0A        SZ [0AH].0
 193  0053  2800     R  JMP L61
 193  0054              L63:

; 195: 			cnt=0;
 195  0054  0F00     R  MOV A,BANK _cnt
 195  0055  0084        MOV [04H],A
 195  0056  0F00     R  MOV A,OFFSET _cnt
 195  0057  0083        MOV [03H],A
 195  0058  1F02        CLR [02H]
 195  0059  1483        INC [03H]
 195  005A  1F02        CLR [02H]

; 196: 			C1=0;C2=0;
 196  005B  3414        CLR [014H].0
 196  005C  3494        CLR [014H].1

; 197: 			C4=0;C5=0;
 197  005D  3714        CLR [014H].6
 197  005E  3694        CLR [014H].5

; 199: 		buzz=0;
 199  005F  0F00     R  MOV A,BANK _buzz
 199  0060  0084        MOV [04H],A
 199  0061  0F00     R  MOV A,OFFSET _buzz
"File: car2.c        Holtek Cross-Assembler  Version 3.00      Page 16 

 199  0062  0083        MOV [03H],A
 199  0063  1F02        CLR [02H]
 199  0064  1483        INC [03H]
 199  0065  1F02        CLR [02H]

; 200: 		dance=0;
 200  0066  0F00     R  MOV A,BANK _dance
 200  0067  0084        MOV [04H],A
 200  0068  0F00     R  MOV A,OFFSET _dance
 200  0069  0083        MOV [03H],A
 200  006A  1F02        CLR [02H]

; 201: 		_delay(3050);
 201  006B  0F02        MOV A,02H
 201  006C  0080     E  MOV RH,A
 201  006D  0FF8        MOV A,0f8H
 201  006E  2000     E  CALL __DELAYY1

; 202: 		_halt();}
 202  006F  0002        HALT
 202  0070              L61:
 202  0070              L59:

; 191: 	while(1){
 191  0070  2800     R  JMP L58
 191  0071              L57:

; 205: }
 205  0071  2800     R  JMP $
 205  0000  0002[       LOCAL b0_4 DB 2 DUP(?)
            00
            ]
 205  0072              _main ENDP

; 209: void turn_rightr(){
 209  0000              @turn_rightr .SECTION 'CODE'
 209  0000              PUBLIC _turn_rightr
 209  0000              _turn_rightr PROC

; 210: 	C1=0;
 210  0000  3414        CLR [014H].0

; 211: 	C2=1;
 211  0001  3094        SET [014H].1
 211  0002              L64:
 211  0002  0003        RET
 211  0003              _turn_rightr ENDP

; 213: void turn_leftr(){
 213  0000              @turn_leftr .SECTION 'CODE'
 213  0000              PUBLIC _turn_leftr
 213  0000              _turn_leftr PROC

; 214: 	C1=1;
 214  0000  3014        SET [014H].0

; 215: 	C2=0;
 215  0001  3494        CLR [014H].1
 215  0002              L65:
 215  0002  0003        RET
"File: car2.c        Holtek Cross-Assembler  Version 3.00      Page 17 

 215  0003              _turn_leftr ENDP

; 218: void turn_rightl(){
 218  0000              @turn_rightl .SECTION 'CODE'
 218  0000              PUBLIC _turn_rightl
 218  0000              _turn_rightl PROC

; 219: 	C4=0;
 219  0000  3714        CLR [014H].6

; 220: 	C5=1;
 220  0001  3294        SET [014H].5
 220  0002              L66:
 220  0002  0003        RET
 220  0003              _turn_rightl ENDP

; 222: void turn_leftl(){
 222  0000              @turn_leftl .SECTION 'CODE'
 222  0000              PUBLIC _turn_leftl
 222  0000              _turn_leftl PROC

; 223: 	C4=1;
 223  0000  3314        SET [014H].6

; 224: 	C5=0;
 224  0001  3694        CLR [014H].5
 224  0002              L67:
 224  0002  0003        RET
 224  0003              _turn_leftl ENDP

; 227: void stopr(){
 227  0000              @stopr .SECTION 'CODE'
 227  0000              PUBLIC _stopr
 227  0000              _stopr PROC

; 228: 	C1=0;
 228  0000  3414        CLR [014H].0

; 229: 	C2=0;
 229  0001  3494        CLR [014H].1
 229  0002              L68:
 229  0002  0003        RET
 229  0003              _stopr ENDP

; 232: void stopl(){
 232  0000              @stopl .SECTION 'CODE'
 232  0000              PUBLIC _stopl
 232  0000              _stopl PROC

; 233: 	C4=0;
 233  0000  3714        CLR [014H].6

; 234: 	C5=0;	
 234  0001  3694        CLR [014H].5
 234  0002              L69:
 234  0002  0003        RET
 234  0003              _stopl ENDP

; 237: void Led_on(){
 237  0000              @Led_on .SECTION 'CODE'
"File: car2.c        Holtek Cross-Assembler  Version 3.00      Page 18 

 237  0000              PUBLIC _Led_on
 237  0000              _Led_on PROC

; 238: 	C4=1;
 238  0000  3314        SET [014H].6
 238  0001              L70:
 238  0001  0003        RET
 238  0002              _Led_on ENDP

; 240: void Led_off(){
 240  0000              @Led_off .SECTION 'CODE'
 240  0000              PUBLIC _Led_off
 240  0000              _Led_off PROC

; 241: 	C4=0;
 241  0000  3714        CLR [014H].6
 241  0001              L71:
 241  0001  0003        RET
 241  0002              _Led_off ENDP

;  15: bool ddance;
  15  0002              PUBLIC _ddance
  15  0000              @ddance .SECTION 'DATA'
  15  0000  00          _ddance DB ? ; ddance

;  14: bool fl,bit_in,fr,bl,br,h,dance;
  14  0001              PUBLIC _dance
  14  0000              @dance .SECTION 'DATA'
  14  0000  00          _dance DB ? ; dance
  14  0001              PUBLIC _h
  14  0000              @h .SECTION 'DATA'
  14  0000  00          _h DB ? ; h
  14  0001              PUBLIC _br
  14  0000              @br .SECTION 'DATA'
  14  0000  00          _br DB ? ; br
  14  0001              PUBLIC _bl
  14  0000              @bl .SECTION 'DATA'
  14  0000  00          _bl DB ? ; bl
  14  0001              PUBLIC _fr
  14  0000              @fr .SECTION 'DATA'
  14  0000  00          _fr DB ? ; fr
  14  0001              PUBLIC _bit_in
  14  0000              @bit_in .SECTION 'DATA'
  14  0000  00          _bit_in DB ? ; bit_in
  14  0001              PUBLIC _fl
  14  0000              @fl .SECTION 'DATA'
  14  0000  00          _fl DB ? ; fl

;  13: int diff;
  13  0001              PUBLIC _diff
  13  0000              @diff .SECTION 'DATA'
  13  0000  0002[       _diff DB 2 DUP (?) ;diff
            00
            ]

;  12: int t0,t1,buzz,cnt,time,tdd,td;
  12  0002              PUBLIC _td
  12  0000              @td .SECTION 'DATA'
  12  0000  0002[       _td DB 2 DUP (?) ;td
            00
"File: car2.c        Holtek Cross-Assembler  Version 3.00      Page 19 

            ]
  12  0002              PUBLIC _tdd
  12  0000              @tdd .SECTION 'DATA'
  12  0000  0002[       _tdd DB 2 DUP (?) ;tdd
            00
            ]
  12  0002              PUBLIC _time
  12  0000              @time .SECTION 'DATA'
  12  0000  0002[       _time DB 2 DUP (?) ;time
            00
            ]
  12  0002              PUBLIC _cnt
  12  0000              @cnt .SECTION 'DATA'
  12  0000  0002[       _cnt DB 2 DUP (?) ;cnt
            00
            ]
  12  0002              PUBLIC _buzz
  12  0000              @buzz .SECTION 'DATA'
  12  0000  0002[       _buzz DB 2 DUP (?) ;buzz
            00
            ]
  12  0002              PUBLIC _t1
  12  0000              @t1 .SECTION 'DATA'
  12  0000  0002[       _t1 DB 2 DUP (?) ;t1
            00
            ]
  12  0002              PUBLIC _t0
  12  0000              @t0 .SECTION 'DATA'
  12  0000  0002[       _t0 DB 2 DUP (?) ;t0
            00
            ]

;  11: int p;
  11  0002              PUBLIC _p
  11  0000              @p .SECTION 'DATA'
  11  0000  0002[       _p DB 2 DUP (?) ;p
            00
            ]
  11  0002              EXTERN _TimeBase_Init:NEAR
  11  0002              EXTERN _STM_Init:NEAR
  11  0002              EXTERN _EXIT_Init:NEAR
  11  0002              EXTERN _SysClockDivision_Init:NEAR

; 135: void main()
 135  0000              STARTSEC .SECTION  COM_L 'CODE'
 135  0000              STARTUP:
 135  0000              STARTSEC .SECTION  COM_E 'CODE'
 135  0000  0003        RET
 135  0001              EXTERN RH:BYTE
 135  0001              EXTERN V1A:BYTE
 135  0001              EXTERN V1S:BYTE
 135  0001              EXTERN V1MP1:BYTE
 135  0001              EXTERN V1BP:BYTE
 135  0001              EXTERN V2A:BYTE
 135  0001              EXTERN V2S:BYTE
 135  0001              EXTERN V2MP1:BYTE
 135  0001              EXTERN V2BP:BYTE
 135  0001              EXTERN V3A:BYTE
 135  0001              EXTERN V3S:BYTE
 135  0001              EXTERN __DELAYY0:NEAR
"File: car2.c        Holtek Cross-Assembler  Version 3.00      Page 20 

 135  0001              EXTERN __DELAYY1:NEAR
 135  0001              EXTERN __DELAYY2:NEAR
 135  0001              EXTERN __DELAYY3:NEAR
 135  0001              EXTERN __DELAYY4:NEAR
 135  0001              EXTERN __DELAYY5:NEAR
 135  0000              @CODE .SECTION AT 0 'CODE'
 135  0000  2000     R  CALL STARTUP
 135  0001  2800     R  JMP begin
 135  0002              @DUMMY PROC
 135  0002  2000     R  CALL _main
 135  0003              @DUMMY ENDP


        0 Errors
