"File: pwm_test.c    Holtek Cross-Assembler  Version 3.00      Page 1



;  57: {
  57  0000              __stm0ah EQU [02dH]
  57  0000              __stm0al EQU [02cH]
  57  0000              __stm0dh EQU [02bH]
  57  0000              __stm0dl EQU [02aH]
  57  0000              __stm0c1 EQU [029H]
  57  0000              __stm0c0 EQU [028H]
  57  0000              __pasr EQU [026H]
  57  0000              __rstc EQU [025H]
  57  0000              __sadc2 EQU [024H]
  57  0000              __sadc1 EQU [023H]
  57  0000              __sadc0 EQU [022H]
  57  0000              __sadoh EQU [021H]
  57  0000              __sadol EQU [020H]
  57  0000              __eed EQU [01fH]
  57  0000              __eea EQU [01eH]
  57  0000              __smod1 EQU [01cH]
  57  0000              __tbc EQU [01bH]
  57  0000              __wdtc EQU [019H]
  57  0000              __ifs0 EQU [018H]
  57  0000              __pawu EQU [017H]
  57  0000              __papu EQU [016H]
  57  0000              __pac EQU [015H]
  57  0000              __pa EQU [014H]
  57  0000              __mfi0 EQU [011H]
  57  0000              __intc1 EQU [0fH]
  57  0000              __intc0 EQU [0eH]
  57  0000              __integ EQU [0dH]
  57  0000              __smod EQU [0bH]
  57  0000              __status EQU [0aH]
  57  0000              __tblh EQU [08H]
  57  0000              __tblp EQU [07H]
  57  0000              __pcl EQU [06H]
  57  0000              __acc EQU [05H]
  57  0000              __bp EQU [04H]
  57  0000              __mp1 EQU [03H]
  57  0000              __iar1 EQU [02H]
  57  0000              __mp0 EQU [01H]
  57  0000              __iar0 EQU [00H]
  57  0000              @MAIN .SECTION 'CODE'
  57  0000              _main PROC
  57  0000              begin:

;  58: 	_ws0=1;
  58  0000  3019        SET [019H].0

;  59: 	_ws1=1;
  59  0001  3099        SET [019H].1

;  60: 	_ws2=1;
  60  0002  3119        SET [019H].2

;  63: 	_pawu6=1;
  63  0003  3317        SET [017H].6

;  64: 	_pawu7=1;
  64  0004  3397        SET [017H].7
"File: pwm_test.c    Holtek Cross-Assembler  Version 3.00      Page 2 


;  65: 	_pawu1=1;
  65  0005  3097        SET [017H].1

;  66: 	_pawu0=1;
  66  0006  3017        SET [017H].0

;  68: 	_pac6=1;
  68  0007  3315        SET [015H].6

;  69: 	_papu6=1;
  69  0008  3316        SET [016H].6

;  70: 	_pac7=1;
  70  0009  3395        SET [015H].7

;  71: 	_papu7=1;
  71  000A  3396        SET [016H].7

;  72: 	_pac1=1;
  72  000B  3095        SET [015H].1

;  73: 	_pac0=1;
  73  000C  3015        SET [015H].0

;  74: 	_papu1=1;
  74  000D  3096        SET [016H].1

;  75: 	_papu0=1;
  75  000E  3016        SET [016H].0

;  78: 	STM_Init();
  78  000F  2000     E  CALL _STM_Init

;  80: 	g_nCCRA = 105;	//PWM duty set 128
  80  0010  0F00     R  MOV A,BANK _g_nCCRA
  80  0011  0084        MOV [04H],A
  80  0012  0F00     R  MOV A,OFFSET _g_nCCRA
  80  0013  0083        MOV [03H],A
  80  0014  0F69        MOV A,069h
  80  0015  0082        MOV [02H],A
  80  0016  1483        INC [03H]
  80  0017  1F02        CLR [02H]

;  81: 	g_nCCRP = 2;	//PWM period set 4*128
  81  0018  0F00     R  MOV A,BANK _g_nCCRP
  81  0019  0084        MOV [04H],A
  81  001A  0F00     R  MOV A,OFFSET _g_nCCRP
  81  001B  0083        MOV [03H],A
  81  001C  0F02        MOV A,02h
  81  001D  0082        MOV [02H],A
  81  001E  1483        INC [03H]
  81  001F  1F02        CLR [02H]

;  93: 	STM_CompareMatchOutputConfig();
  93  0020  2000     E  CALL _STM_CompareMatchOutputConfig

;  94: 	STM_CompareMatchOutputUpdate(g_nCCRA);
  94  0021  0F00     R  MOV A,BANK _g_nCCRA
  94  0022  0084        MOV [04H],A
"File: pwm_test.c    Holtek Cross-Assembler  Version 3.00      Page 3 

  94  0023  0F00     R  MOV A,OFFSET _g_nCCRA
  94  0024  0083        MOV [03H],A
  94  0025  0702        MOV A,[02H]
  94  0026  0080     E  MOV STM_CompareMatchOutputUpdate0,A
  94  0027  1483        INC [03H]
  94  0028  0702        MOV A,[02H]
  94  0029  0080     E  MOV STM_CompareMatchOutputUpdate0[1],A
  94  002A  2000     E  CALL _STM_CompareMatchOutputUpdate

;  95: 	_delay(20000);	//wait system stable
  95  002B  0F13        MOV A,013H
  95  002C  0080     E  MOV RH,A
  95  002D  0F7D        MOV A,07dH
  95  002E  2000     E  CALL __DELAYY1

;  96: 	_pawu5=1;
  96  002F  3297        SET [017H].5

;  97: 	_pac5=1;
  97  0030  3295        SET [015H].5

;  98: 	_papu5=1;
  98  0031  3296        SET [016H].5
  98  0032  2800     R  JMP L7
  98  0033              L6:

; 102: 		stop=1;
 102  0033  0F00     R  MOV A,BANK _stop
 102  0034  0084        MOV [04H],A
 102  0035  0F00     R  MOV A,OFFSET _stop
 102  0036  0083        MOV [03H],A
 102  0037  0F01        MOV A,1
 102  0038  0082        MOV [02H],A

; 204: 		if(!f){fr=1;fl=1;br=0;bl=0;}
 204  0039  3F14        SZ [014H].6
 204  003A  2800     R  JMP L9
 204  003B  0F00     R  MOV A,BANK _fr
 204  003C  0084        MOV [04H],A
 204  003D  0F00     R  MOV A,OFFSET _fr
 204  003E  0083        MOV [03H],A
 204  003F  0F01        MOV A,01h
 204  0040  0082        MOV [02H],A
 204  0041  1483        INC [03H]
 204  0042  1F02        CLR [02H]
 204  0043  0F00     R  MOV A,BANK _fl
 204  0044  0084        MOV [04H],A
 204  0045  0F00     R  MOV A,OFFSET _fl
 204  0046  0083        MOV [03H],A
 204  0047  0F01        MOV A,01h
 204  0048  0082        MOV [02H],A
 204  0049  1483        INC [03H]
 204  004A  1F02        CLR [02H]
 204  004B  0F00     R  MOV A,BANK _br
 204  004C  0084        MOV [04H],A
 204  004D  0F00     R  MOV A,OFFSET _br
 204  004E  0083        MOV [03H],A
 204  004F  1F02        CLR [02H]
 204  0050  1483        INC [03H]
 204  0051  1F02        CLR [02H]
"File: pwm_test.c    Holtek Cross-Assembler  Version 3.00      Page 4 

 204  0052  0F00     R  MOV A,BANK _bl
 204  0053  0084        MOV [04H],A
 204  0054  0F00     R  MOV A,OFFSET _bl
 204  0055  0083        MOV [03H],A
 204  0056  1F02        CLR [02H]
 204  0057  1483        INC [03H]
 204  0058  1F02        CLR [02H]
 204  0059              L9:

; 205: 		if(!b){fr=0;fl=0;br=1;bl=1;}
 205  0059  3E94        SZ [014H].5
 205  005A  2800     R  JMP L11
 205  005B  0F00     R  MOV A,BANK _fr
 205  005C  0084        MOV [04H],A
 205  005D  0F00     R  MOV A,OFFSET _fr
 205  005E  0083        MOV [03H],A
 205  005F  1F02        CLR [02H]
 205  0060  1483        INC [03H]
 205  0061  1F02        CLR [02H]
 205  0062  0F00     R  MOV A,BANK _fl
 205  0063  0084        MOV [04H],A
 205  0064  0F00     R  MOV A,OFFSET _fl
 205  0065  0083        MOV [03H],A
 205  0066  1F02        CLR [02H]
 205  0067  1483        INC [03H]
 205  0068  1F02        CLR [02H]
 205  0069  0F00     R  MOV A,BANK _br
 205  006A  0084        MOV [04H],A
 205  006B  0F00     R  MOV A,OFFSET _br
 205  006C  0083        MOV [03H],A
 205  006D  0F01        MOV A,01h
 205  006E  0082        MOV [02H],A
 205  006F  1483        INC [03H]
 205  0070  1F02        CLR [02H]
 205  0071  0F00     R  MOV A,BANK _bl
 205  0072  0084        MOV [04H],A
 205  0073  0F00     R  MOV A,OFFSET _bl
 205  0074  0083        MOV [03H],A
 205  0075  0F01        MOV A,01h
 205  0076  0082        MOV [02H],A
 205  0077  1483        INC [03H]
 205  0078  1F02        CLR [02H]
 205  0079              L11:

; 206: 		if(!right){fr=1;fl=0;br=0;bl=1;}
 206  0079  3C14        SZ [014H].0
 206  007A  2800     R  JMP L13
 206  007B  0F00     R  MOV A,BANK _fr
 206  007C  0084        MOV [04H],A
 206  007D  0F00     R  MOV A,OFFSET _fr
 206  007E  0083        MOV [03H],A
 206  007F  0F01        MOV A,01h
 206  0080  0082        MOV [02H],A
 206  0081  1483        INC [03H]
 206  0082  1F02        CLR [02H]
 206  0083  0F00     R  MOV A,BANK _fl
 206  0084  0084        MOV [04H],A
 206  0085  0F00     R  MOV A,OFFSET _fl
 206  0086  0083        MOV [03H],A
 206  0087  1F02        CLR [02H]
"File: pwm_test.c    Holtek Cross-Assembler  Version 3.00      Page 5 

 206  0088  1483        INC [03H]
 206  0089  1F02        CLR [02H]
 206  008A  0F00     R  MOV A,BANK _br
 206  008B  0084        MOV [04H],A
 206  008C  0F00     R  MOV A,OFFSET _br
 206  008D  0083        MOV [03H],A
 206  008E  1F02        CLR [02H]
 206  008F  1483        INC [03H]
 206  0090  1F02        CLR [02H]
 206  0091  0F00     R  MOV A,BANK _bl
 206  0092  0084        MOV [04H],A
 206  0093  0F00     R  MOV A,OFFSET _bl
 206  0094  0083        MOV [03H],A
 206  0095  0F01        MOV A,01h
 206  0096  0082        MOV [02H],A
 206  0097  1483        INC [03H]
 206  0098  1F02        CLR [02H]
 206  0099              L13:

; 207: 		if(!l){fr=0;fl=1;br=1;bl=0;}
 207  0099  3C94        SZ [014H].1
 207  009A  2800     R  JMP L15
 207  009B  0F00     R  MOV A,BANK _fr
 207  009C  0084        MOV [04H],A
 207  009D  0F00     R  MOV A,OFFSET _fr
 207  009E  0083        MOV [03H],A
 207  009F  1F02        CLR [02H]
 207  00A0  1483        INC [03H]
 207  00A1  1F02        CLR [02H]
 207  00A2  0F00     R  MOV A,BANK _fl
 207  00A3  0084        MOV [04H],A
 207  00A4  0F00     R  MOV A,OFFSET _fl
 207  00A5  0083        MOV [03H],A
 207  00A6  0F01        MOV A,01h
 207  00A7  0082        MOV [02H],A
 207  00A8  1483        INC [03H]
 207  00A9  1F02        CLR [02H]
 207  00AA  0F00     R  MOV A,BANK _br
 207  00AB  0084        MOV [04H],A
 207  00AC  0F00     R  MOV A,OFFSET _br
 207  00AD  0083        MOV [03H],A
 207  00AE  0F01        MOV A,01h
 207  00AF  0082        MOV [02H],A
 207  00B0  1483        INC [03H]
 207  00B1  1F02        CLR [02H]
 207  00B2  0F00     R  MOV A,BANK _bl
 207  00B3  0084        MOV [04H],A
 207  00B4  0F00     R  MOV A,OFFSET _bl
 207  00B5  0083        MOV [03H],A
 207  00B6  1F02        CLR [02H]
 207  00B7  1483        INC [03H]
 207  00B8  1F02        CLR [02H]
 207  00B9              L15:

; 208: 		if(!l && !right){fr=1;fl=1;br=1;bl=1;}
 208  00B9  3C94        SZ [014H].1
 208  00BA  2800     R  JMP L17
 208  00BB  3C14        SZ [014H].0
 208  00BC  2800     R  JMP L17
 208  00BD  0F00     R  MOV A,BANK _fr
"File: pwm_test.c    Holtek Cross-Assembler  Version 3.00      Page 6 

 208  00BE  0084        MOV [04H],A
 208  00BF  0F00     R  MOV A,OFFSET _fr
 208  00C0  0083        MOV [03H],A
 208  00C1  0F01        MOV A,01h
 208  00C2  0082        MOV [02H],A
 208  00C3  1483        INC [03H]
 208  00C4  1F02        CLR [02H]
 208  00C5  0F00     R  MOV A,BANK _fl
 208  00C6  0084        MOV [04H],A
 208  00C7  0F00     R  MOV A,OFFSET _fl
 208  00C8  0083        MOV [03H],A
 208  00C9  0F01        MOV A,01h
 208  00CA  0082        MOV [02H],A
 208  00CB  1483        INC [03H]
 208  00CC  1F02        CLR [02H]
 208  00CD  0F00     R  MOV A,BANK _br
 208  00CE  0084        MOV [04H],A
 208  00CF  0F00     R  MOV A,OFFSET _br
 208  00D0  0083        MOV [03H],A
 208  00D1  0F01        MOV A,01h
 208  00D2  0082        MOV [02H],A
 208  00D3  1483        INC [03H]
 208  00D4  1F02        CLR [02H]
 208  00D5  0F00     R  MOV A,BANK _bl
 208  00D6  0084        MOV [04H],A
 208  00D7  0F00     R  MOV A,OFFSET _bl
 208  00D8  0083        MOV [03H],A
 208  00D9  0F01        MOV A,01h
 208  00DA  0082        MOV [02H],A
 208  00DB  1483        INC [03H]
 208  00DC  1F02        CLR [02H]
 208  00DD              L17:

; 209: 		horn=!h;
 209  00DD  3F94        SZ [014H].7
 209  00DE  2800     R  JMP L20
 209  00DF  0F01        MOV A,01h
 209  00E0  0080     R  MOV CR1,A
 209  00E1  2800     R  JMP L21
 209  00E2              L20:
 209  00E2  1F00     R  CLR CR1
 209  00E3              L21:
 209  00E3  0F00     R  MOV A,BANK _horn
 209  00E4  0084        MOV [04H],A
 209  00E5  0F00     R  MOV A,OFFSET _horn
 209  00E6  0083        MOV [03H],A
 209  00E7  0700     R  MOV A,CR1
 209  00E8  0082        MOV [02H],A
 209  00E9  1483        INC [03H]
 209  00EA  1F02        CLR [02H]

; 210: 		send_sink();
 210  00EB  2000     R  CALL _send_sink

; 212: 		if (fr){
 212  00EC  0F00     R  MOV A,BANK _fr
 212  00ED  0084        MOV [04H],A
 212  00EE  0F00     R  MOV A,OFFSET _fr
 212  00EF  0083        MOV [03H],A
 212  00F0  0702        MOV A,[02H]
"File: pwm_test.c    Holtek Cross-Assembler  Version 3.00      Page 7 

 212  00F1  0080     R  MOV b0_1,A
 212  00F2  1483        INC [03H]
 212  00F3  0702        MOV A,[02H]
 212  00F4  0080     R  MOV b0_1[1],A
 212  00F5  0700     R  MOV A,b0_1
 212  00F6  0500     R  OR A,b0_1[1]
 212  00F7  3D0A        SZ [0AH].2
 212  00F8  2800     R  JMP L22

; 213: 			stop=0;
 213  00F9  0F00     R  MOV A,BANK _stop
 213  00FA  0084        MOV [04H],A
 213  00FB  0F00     R  MOV A,OFFSET _stop
 213  00FC  0083        MOV [03H],A
 213  00FD  1F02        CLR [02H]

; 214: 			r=0;
 214  00FE  0F00     R  MOV A,BANK _r
 214  00FF  0084        MOV [04H],A
 214  0100  0F00     R  MOV A,OFFSET _r
 214  0101  0083        MOV [03H],A
 214  0102  1F02        CLR [02H]
 214  0103  1483        INC [03H]
 214  0104  1F02        CLR [02H]

; 215: 			send_one();
 215  0105  2000     R  CALL _send_one

; 217: 			}else{
 217  0106  2800     R  JMP L23
 217  0107              L22:

; 218: 				send_zero();
 218  0107  2000     R  CALL _send_zero
 218  0108              L23:

; 221: 		if (fl){
 221  0108  0F00     R  MOV A,BANK _fl
 221  0109  0084        MOV [04H],A
 221  010A  0F00     R  MOV A,OFFSET _fl
 221  010B  0083        MOV [03H],A
 221  010C  0702        MOV A,[02H]
 221  010D  0080     R  MOV b0_1,A
 221  010E  1483        INC [03H]
 221  010F  0702        MOV A,[02H]
 221  0110  0080     R  MOV b0_1[1],A
 221  0111  0700     R  MOV A,b0_1
 221  0112  0500     R  OR A,b0_1[1]
 221  0113  3D0A        SZ [0AH].2
 221  0114  2800     R  JMP L24

; 222: 			stop=0;
 222  0115  0F00     R  MOV A,BANK _stop
 222  0116  0084        MOV [04H],A
 222  0117  0F00     R  MOV A,OFFSET _stop
 222  0118  0083        MOV [03H],A
 222  0119  1F02        CLR [02H]

; 223: 			r=0;
 223  011A  0F00     R  MOV A,BANK _r
"File: pwm_test.c    Holtek Cross-Assembler  Version 3.00      Page 8 

 223  011B  0084        MOV [04H],A
 223  011C  0F00     R  MOV A,OFFSET _r
 223  011D  0083        MOV [03H],A
 223  011E  1F02        CLR [02H]
 223  011F  1483        INC [03H]
 223  0120  1F02        CLR [02H]

; 224: 			send_one();
 224  0121  2000     R  CALL _send_one

; 226: 			}else{
 226  0122  2800     R  JMP L25
 226  0123              L24:

; 227: 				send_zero();
 227  0123  2000     R  CALL _send_zero
 227  0124              L25:

; 230: 		if (br){
 230  0124  0F00     R  MOV A,BANK _br
 230  0125  0084        MOV [04H],A
 230  0126  0F00     R  MOV A,OFFSET _br
 230  0127  0083        MOV [03H],A
 230  0128  0702        MOV A,[02H]
 230  0129  0080     R  MOV b0_1,A
 230  012A  1483        INC [03H]
 230  012B  0702        MOV A,[02H]
 230  012C  0080     R  MOV b0_1[1],A
 230  012D  0700     R  MOV A,b0_1
 230  012E  0500     R  OR A,b0_1[1]
 230  012F  3D0A        SZ [0AH].2
 230  0130  2800     R  JMP L26

; 231: 			stop=0;
 231  0131  0F00     R  MOV A,BANK _stop
 231  0132  0084        MOV [04H],A
 231  0133  0F00     R  MOV A,OFFSET _stop
 231  0134  0083        MOV [03H],A
 231  0135  1F02        CLR [02H]

; 232: 			r=0;
 232  0136  0F00     R  MOV A,BANK _r
 232  0137  0084        MOV [04H],A
 232  0138  0F00     R  MOV A,OFFSET _r
 232  0139  0083        MOV [03H],A
 232  013A  1F02        CLR [02H]
 232  013B  1483        INC [03H]
 232  013C  1F02        CLR [02H]

; 233: 			send_one();
 233  013D  2000     R  CALL _send_one

; 235: 			}else{
 235  013E  2800     R  JMP L27
 235  013F              L26:

; 236: 				send_zero();
 236  013F  2000     R  CALL _send_zero
 236  0140              L27:

; 239: 		if (bl){
"File: pwm_test.c    Holtek Cross-Assembler  Version 3.00      Page 9 

 239  0140  0F00     R  MOV A,BANK _bl
 239  0141  0084        MOV [04H],A
 239  0142  0F00     R  MOV A,OFFSET _bl
 239  0143  0083        MOV [03H],A
 239  0144  0702        MOV A,[02H]
 239  0145  0080     R  MOV b0_1,A
 239  0146  1483        INC [03H]
 239  0147  0702        MOV A,[02H]
 239  0148  0080     R  MOV b0_1[1],A
 239  0149  0700     R  MOV A,b0_1
 239  014A  0500     R  OR A,b0_1[1]
 239  014B  3D0A        SZ [0AH].2
 239  014C  2800     R  JMP L28

; 240: 			stop=0;
 240  014D  0F00     R  MOV A,BANK _stop
 240  014E  0084        MOV [04H],A
 240  014F  0F00     R  MOV A,OFFSET _stop
 240  0150  0083        MOV [03H],A
 240  0151  1F02        CLR [02H]

; 241: 			r=0;
 241  0152  0F00     R  MOV A,BANK _r
 241  0153  0084        MOV [04H],A
 241  0154  0F00     R  MOV A,OFFSET _r
 241  0155  0083        MOV [03H],A
 241  0156  1F02        CLR [02H]
 241  0157  1483        INC [03H]
 241  0158  1F02        CLR [02H]

; 242: 			send_one();
 242  0159  2000     R  CALL _send_one

; 244: 			}else{
 244  015A  2800     R  JMP L29
 244  015B              L28:

; 245: 				send_zero();
 245  015B  2000     R  CALL _send_zero
 245  015C              L29:

; 248: 		if (horn){
 248  015C  0F00     R  MOV A,BANK _horn
 248  015D  0084        MOV [04H],A
 248  015E  0F00     R  MOV A,OFFSET _horn
 248  015F  0083        MOV [03H],A
 248  0160  0702        MOV A,[02H]
 248  0161  0080     R  MOV b0_1,A
 248  0162  1483        INC [03H]
 248  0163  0702        MOV A,[02H]
 248  0164  0080     R  MOV b0_1[1],A
 248  0165  0700     R  MOV A,b0_1
 248  0166  0500     R  OR A,b0_1[1]
 248  0167  3D0A        SZ [0AH].2
 248  0168  2800     R  JMP L30

; 249: 			stop=0;
 249  0169  0F00     R  MOV A,BANK _stop
 249  016A  0084        MOV [04H],A
 249  016B  0F00     R  MOV A,OFFSET _stop
"File: pwm_test.c    Holtek Cross-Assembler  Version 3.00      Page 10 

 249  016C  0083        MOV [03H],A
 249  016D  1F02        CLR [02H]

; 250: 			r=0;
 250  016E  0F00     R  MOV A,BANK _r
 250  016F  0084        MOV [04H],A
 250  0170  0F00     R  MOV A,OFFSET _r
 250  0171  0083        MOV [03H],A
 250  0172  1F02        CLR [02H]
 250  0173  1483        INC [03H]
 250  0174  1F02        CLR [02H]

; 251: 			send_one();
 251  0175  2000     R  CALL _send_one

; 253: 			}else{
 253  0176  2800     R  JMP L31
 253  0177              L30:

; 254: 				send_zero();
 254  0177  2000     R  CALL _send_zero
 254  0178              L31:

; 257: 		fr=0;fl=0;br=0;bl=0;
 257  0178  0F00     R  MOV A,BANK _fr
 257  0179  0084        MOV [04H],A
 257  017A  0F00     R  MOV A,OFFSET _fr
 257  017B  0083        MOV [03H],A
 257  017C  1F02        CLR [02H]
 257  017D  1483        INC [03H]
 257  017E  1F02        CLR [02H]
 257  017F  0F00     R  MOV A,BANK _fl
 257  0180  0084        MOV [04H],A
 257  0181  0F00     R  MOV A,OFFSET _fl
 257  0182  0083        MOV [03H],A
 257  0183  1F02        CLR [02H]
 257  0184  1483        INC [03H]
 257  0185  1F02        CLR [02H]
 257  0186  0F00     R  MOV A,BANK _br
 257  0187  0084        MOV [04H],A
 257  0188  0F00     R  MOV A,OFFSET _br
 257  0189  0083        MOV [03H],A
 257  018A  1F02        CLR [02H]
 257  018B  1483        INC [03H]
 257  018C  1F02        CLR [02H]
 257  018D  0F00     R  MOV A,BANK _bl
 257  018E  0084        MOV [04H],A
 257  018F  0F00     R  MOV A,OFFSET _bl
 257  0190  0083        MOV [03H],A
 257  0191  1F02        CLR [02H]
 257  0192  1483        INC [03H]
 257  0193  1F02        CLR [02H]

; 258: 		_delay(200000);
 258  0194  0FC2        MOV A,0c2H
 258  0195  0080     E  MOV RH,A
 258  0196  0FED        MOV A,0edH
 258  0197  2000     E  CALL __DELAYY3

; 296: 		_clrwdt();
"File: pwm_test.c    Holtek Cross-Assembler  Version 3.00      Page 11 

 296  0198  0001        CLR WDT
 296  0199              L7:

; 100: 	while(1)
 100  0199  2800     R  JMP L6
 100  019A              L5:

; 299: }
 299  019A  2800     R  JMP $
 299  0000  0002[       LOCAL b0_1 DB 2 DUP(?)
            00
            ]
 299  0002  00          LOCAL CR1 DB ? ; 19
 299  019B              _main ENDP

; 300: void send_one(void){
 300  0000              @send_one .SECTION 'CODE'
 300  0000              PUBLIC _send_one
 300  0000              _send_one PROC

; 301: 		STM_ENABLE();
 301  0000  31A8        SET [028H].3

; 302: 		_delay(13000);
 302  0001  0F0C        MOV A,0cH
 302  0002  0080     E  MOV RH,A
 302  0003  0FAA        MOV A,0aaH
 302  0004  2000     E  CALL __DELAYY3

; 303: 		STM_DISABLE();
 303  0005  35A8        CLR [028H].3

; 304: 		_delay(3000);
 304  0006  0F02        MOV A,02H
 304  0007  0080     E  MOV RH,A
 304  0008  0FEB        MOV A,0ebH
 304  0009  2000     E  CALL __DELAYY3
 304  000A              L32:
 304  000A  0003        RET
 304  000B              _send_one ENDP

; 306: void send_zero(void){
 306  0000              @send_zero .SECTION 'CODE'
 306  0000              PUBLIC _send_zero
 306  0000              _send_zero PROC

; 307: 		STM_ENABLE();
 307  0000  31A8        SET [028H].3

; 308: 		_delay(8000);
 308  0001  0F07        MOV A,07H
 308  0002  0080     E  MOV RH,A
 308  0003  0FCB        MOV A,0cbH
 308  0004  2000     E  CALL __DELAYY1

; 309: 		STM_DISABLE();
 309  0005  35A8        CLR [028H].3

; 310: 		_delay(3000);
 310  0006  0F02        MOV A,02H
"File: pwm_test.c    Holtek Cross-Assembler  Version 3.00      Page 12 

 310  0007  0080     E  MOV RH,A
 310  0008  0FEB        MOV A,0ebH
 310  0009  2000     E  CALL __DELAYY3
 310  000A              L33:
 310  000A  0003        RET
 310  000B              _send_zero ENDP

; 312: void send_sink(void){
 312  0000              @send_sink .SECTION 'CODE'
 312  0000              PUBLIC _send_sink
 312  0000              _send_sink PROC

; 313: 		STM_ENABLE();
 313  0000  31A8        SET [028H].3

; 314: 		_delay(4000);
 314  0001  0F03        MOV A,03H
 314  0002  0080     E  MOV RH,A
 314  0003  0FE5        MOV A,0e5H
 314  0004  2000     E  CALL __DELAYY1

; 315: 		STM_DISABLE();
 315  0005  35A8        CLR [028H].3

; 316: 		_delay(3000);
 316  0006  0F02        MOV A,02H
 316  0007  0080     E  MOV RH,A
 316  0008  0FEB        MOV A,0ebH
 316  0009  2000     E  CALL __DELAYY3
 316  000A              L34:
 316  000A  0003        RET
 316  000B              _send_sink ENDP
 316  000B              EXTERN STM_CompareMatchOutputUpdate0:BYTE

;  44: u16	g_nCCRP ;		
  44  000B              PUBLIC _g_nCCRP
  44  0000              @g_nCCRP .SECTION 'DATA'
  44  0000  0002[       _g_nCCRP DB 2 DUP (?) ;g_nCCRP
            00
            ]

;  43: u16	g_nCCRA ;		
  43  0002              PUBLIC _g_nCCRA
  43  0000              @g_nCCRA .SECTION 'DATA'
  43  0000  0002[       _g_nCCRA DB 2 DUP (?) ;g_nCCRA
            00
            ]

;  42: int r,fr,fl,br,bl,horn;
  42  0002              PUBLIC _horn
  42  0000              @horn .SECTION 'DATA'
  42  0000  0002[       _horn DB 2 DUP (?) ;horn
            00
            ]
  42  0002              PUBLIC _bl
  42  0000              @bl .SECTION 'DATA'
  42  0000  0002[       _bl DB 2 DUP (?) ;bl
            00
            ]
  42  0002              PUBLIC _br
"File: pwm_test.c    Holtek Cross-Assembler  Version 3.00      Page 13 

  42  0000              @br .SECTION 'DATA'
  42  0000  0002[       _br DB 2 DUP (?) ;br
            00
            ]
  42  0002              PUBLIC _fl
  42  0000              @fl .SECTION 'DATA'
  42  0000  0002[       _fl DB 2 DUP (?) ;fl
            00
            ]
  42  0002              PUBLIC _fr
  42  0000              @fr .SECTION 'DATA'
  42  0000  0002[       _fr DB 2 DUP (?) ;fr
            00
            ]
  42  0002              PUBLIC _r
  42  0000              @r .SECTION 'DATA'
  42  0000  0002[       _r DB 2 DUP (?) ;r
            00
            ]

;  41: bool stop;
  41  0002              PUBLIC _stop
  41  0000              @stop .SECTION 'DATA'
  41  0000  00          _stop DB ? ; stop
  41  0001              EXTERN _STM_CompareMatchOutputUpdate:NEAR
  41  0001              EXTERN _STM_CompareMatchOutputConfig:NEAR
  41  0001              EXTERN _STM_Init:NEAR

;  56: void main()
  56  0000              STARTSEC .SECTION  COM_L 'CODE'
  56  0000              STARTUP:
  56  0000              STARTSEC .SECTION  COM_E 'CODE'
  56  0000  0003        RET
  56  0001              EXTERN RH:BYTE
  56  0001              EXTERN __DELAYY0:NEAR
  56  0001              EXTERN __DELAYY1:NEAR
  56  0001              EXTERN __DELAYY2:NEAR
  56  0001              EXTERN __DELAYY3:NEAR
  56  0001              EXTERN __DELAYY4:NEAR
  56  0001              EXTERN __DELAYY5:NEAR
  56  0000              @CODE .SECTION AT 0 'CODE'
  56  0000  2000     R  CALL STARTUP
  56  0001  2800     R  JMP begin
  56  0002              @DUMMY PROC
  56  0002  2000     R  CALL _main
  56  0003              @DUMMY ENDP


        0 Errors
